; Function Attrs: null_pointer_is_valid sspstrong uwtable
define i32 @get_CDR_long(ptr noundef %0, ptr noundef captures(none) %1, i1 noundef zeroext %2, i32 noundef %3) local_unnamed_addr #0 {
  %.promoted = load i32, ptr %1, align 4
  %5 = add i32 %.promoted, %3
  %6 = and i32 %5, 3
  %.not9 = icmp eq i32 %6, 0
  br i1 %.not9, label %10, label %.lr.ph.preheader

.lr.ph.preheader:                                 ; preds = %4
  %.neg = and i32 %5, 3
  %7 = xor i32 %.neg, 3
  %8 = add i32 %.promoted, %7
  %9 = add i32 %8, 1
  store i32 %9, ptr %1, align 4
  br label %10

10:                                               ; preds = %.lr.ph.preheader, %4
  %.lcssa = phi i32 [ %9, %.lr.ph.preheader ], [ %.promoted, %4 ]
  br i1 %2, label %11, label %13

11:                                               ; preds = %10
  %12 = tail call i32 @tvb_get_ntohl(ptr noundef %0, i32 noundef %.lcssa)
  br label %15

13:                                               ; preds = %10
  %14 = tail call i32 @tvb_get_letohl(ptr noundef %0, i32 noundef %.lcssa)
  br label %15

15:                                               ; preds = %13, %11
  %16 = phi i32 [ %12, %11 ], [ %14, %13 ]
  %17 = load i32, ptr %1, align 4
  %18 = add i32 %17, 4
  store i32 %18, ptr %1, align 4
  ret i32 %16
}